target datalayout = "e-m:e-p270:32:32-p271:32:32-p272:64:64-i64:64-i128:128-f80:128-n8:16:32:64-S128"
target triple = "x86_64-pc-linux-gnu"

%struct._lv_global_t = type { i8, i8, %struct.lv_ll_t, ptr, ptr, %struct.lv_ll_t, i8, i32, i32, ptr, %struct.lv_ll_t, ptr, %struct.lv_ll_t, ptr, ptr, i32, ptr, i8, i32, i32, ptr, i32, %struct.lv_timer_state_t, %struct.lv_anim_state_t, %struct.lv_tick_state_t, %struct._lv_draw_buf_handlers_t, %struct._lv_draw_buf_handlers_t, %struct._lv_draw_buf_handlers_t, %struct.lv_ll_t, ptr, ptr, %struct.lv_draw_global_info_t, [4 x %struct.lv_draw_sw_mask_radius_circle_dsc_t], ptr, ptr, ptr, %struct.lv_tlsf_state_t, %struct.lv_ll_t, ptr, ptr, %struct.lv_style_t, i64, ptr, i32, ptr }
%struct.lv_timer_state_t = type { %struct.lv_ll_t, i8, i8, i8, i8, i32, i8, i32, i32, i32, i32, ptr, ptr }
%struct.lv_anim_state_t = type { i8, i8, ptr, %struct.lv_ll_t }
%struct.lv_tick_state_t = type { i32, i8, ptr, ptr }
%struct._lv_draw_buf_handlers_t = type { ptr, ptr, ptr, ptr, ptr, ptr }
%struct.lv_draw_global_info_t = type { ptr, i32, i32, i32, i32, i8 }
%struct.lv_draw_sw_mask_radius_circle_dsc_t = type { ptr, ptr, ptr, ptr, i32, i32, i32 }
%struct.lv_tlsf_state_t = type { ptr, i64, i64, %struct.lv_ll_t }
%struct.lv_ll_t = type { i32, ptr, ptr }
%struct.lv_style_t = type { ptr, i32, i8 }
%struct._lv_fs_drv_t = type { i8, i32, ptr, ptr, ptr, ptr, ptr, ptr, ptr, ptr, ptr, ptr, ptr }
%struct.resolved_path_t = type { i8, ptr }
%struct.lv_fs_dir_t = type { ptr, ptr }

@lv_global = external global %struct._lv_global_t, align 8

; Function Attrs: nounwind uwtable
define ptr @lv_fs_get_drv(i8 noundef signext %0) #0 {
  %2 = alloca ptr, align 8
  %3 = alloca i8, align 1
  %4 = alloca ptr, align 8
  %5 = alloca i32, align 4
  store i8 %0, ptr %3, align 1, !tbaa !3
  call void @llvm.lifetime.start.p0(i64 8, ptr %4) #4
  %6 = call ptr @lv_ll_get_head(ptr noundef getelementptr inbounds nuw (%struct._lv_global_t, ptr @lv_global, i32 0, i32 37))
  store ptr %6, ptr %4, align 8, !tbaa !6
  br label %7

7:                                                ; preds = %23, %1
  %8 = load ptr, ptr %4, align 8, !tbaa !6
  %9 = icmp ne ptr %8, null
  br i1 %9, label %10, label %26

10:                                               ; preds = %7
  %11 = load ptr, ptr %4, align 8, !tbaa !6
  %12 = load ptr, ptr %11, align 8, !tbaa !6
  %13 = getelementptr inbounds nuw %struct._lv_fs_drv_t, ptr %12, i32 0, i32 0
  %14 = load i8, ptr %13, align 8, !tbaa !11
  %15 = sext i8 %14 to i32
  %16 = load i8, ptr %3, align 1, !tbaa !3
  %17 = sext i8 %16 to i32
  %18 = icmp eq i32 %15, %17
  br i1 %18, label %19, label %22

19:                                               ; preds = %10
  %20 = load ptr, ptr %4, align 8, !tbaa !6
  %21 = load ptr, ptr %20, align 8, !tbaa !6
  store ptr %21, ptr %2, align 8
  store i32 1, ptr %5, align 4
  br label %27

22:                                               ; preds = %10
  br label %23

23:                                               ; preds = %22
  %24 = load ptr, ptr %4, align 8, !tbaa !6
  %25 = call ptr @lv_ll_get_next(ptr noundef getelementptr inbounds nuw (%struct._lv_global_t, ptr @lv_global, i32 0, i32 37), ptr noundef %24)
  store ptr %25, ptr %4, align 8, !tbaa !6
  br label %7, !llvm.loop !12

26:                                               ; preds = %7
  store ptr null, ptr %2, align 8
  store i32 1, ptr %5, align 4
  br label %27

27:                                               ; preds = %26, %19
  call void @llvm.lifetime.end.p0(i64 8, ptr %4) #4
  %28 = load ptr, ptr %2, align 8
  ret ptr %28
}

; Function Attrs: nounwind uwtable
define internal { i8, ptr } @lv_fs_resolve_path(ptr noundef %0) #0 {
  %2 = alloca %struct.resolved_path_t, align 8
  %3 = alloca ptr, align 8
  store ptr %0, ptr %3, align 8, !tbaa !6
  %4 = load ptr, ptr %3, align 8, !tbaa !6
  %5 = getelementptr inbounds i8, ptr %4, i64 0
  %6 = load i8, ptr %5, align 1, !tbaa !3
  %7 = getelementptr inbounds nuw %struct.resolved_path_t, ptr %2, i32 0, i32 0
  store i8 %6, ptr %7, align 8, !tbaa !15
  %8 = load ptr, ptr %3, align 8, !tbaa !6
  %9 = load i8, ptr %8, align 1, !tbaa !3
  %10 = sext i8 %9 to i32
  %11 = icmp ne i32 %10, 0
  br i1 %11, label %12, label %23

12:                                               ; preds = %1
  %13 = load ptr, ptr %3, align 8, !tbaa !6
  %14 = getelementptr inbounds nuw i8, ptr %13, i32 1
  store ptr %14, ptr %3, align 8, !tbaa !6
  %15 = load ptr, ptr %3, align 8, !tbaa !6
  %16 = load i8, ptr %15, align 1, !tbaa !3
  %17 = sext i8 %16 to i32
  %18 = icmp eq i32 %17, 58
  br i1 %18, label %19, label %22

19:                                               ; preds = %12
  %20 = load ptr, ptr %3, align 8, !tbaa !6
  %21 = getelementptr inbounds nuw i8, ptr %20, i32 1
  store ptr %21, ptr %3, align 8, !tbaa !6
  br label %22

22:                                               ; preds = %19, %12
  br label %23

23:                                               ; preds = %22, %1
  %24 = load ptr, ptr %3, align 8, !tbaa !6
  %25 = getelementptr inbounds nuw %struct.resolved_path_t, ptr %2, i32 0, i32 1
  store ptr %24, ptr %25, align 8, !tbaa !22
  %26 = load { i8, ptr }, ptr %2, align 8
  ret { i8, ptr } %26
}

; Function Attrs: nounwind uwtable
define i32 @lv_fs_dir_open(ptr noundef %0, ptr noundef %1) #0 {
  %3 = alloca i32, align 4
  %4 = alloca ptr, align 8
  %5 = alloca ptr, align 8
  %6 = alloca %struct.resolved_path_t, align 8
  %7 = alloca ptr, align 8
  %8 = alloca i32, align 4
  %9 = alloca ptr, align 8
  store ptr %0, ptr %4, align 8, !tbaa !6
  store ptr %1, ptr %5, align 8, !tbaa !6
  %10 = load ptr, ptr %5, align 8, !tbaa !6
  %11 = icmp eq ptr %10, null
  br i1 %11, label %12, label %13

12:                                               ; preds = %2
  store i32 11, ptr %3, align 4
  br label %70

13:                                               ; preds = %2
  call void @llvm.lifetime.start.p0(i64 16, ptr %6) #4
  %14 = load ptr, ptr %5, align 8, !tbaa !6
  %15 = call { i8, ptr } @lv_fs_resolve_path(ptr noundef %14)
  %16 = getelementptr inbounds nuw { i8, ptr }, ptr %6, i32 0, i32 0
  %17 = extractvalue { i8, ptr } %15, 0
  store i8 %17, ptr %16, align 8
  %18 = getelementptr inbounds nuw { i8, ptr }, ptr %6, i32 0, i32 1
  %19 = extractvalue { i8, ptr } %15, 1
  store ptr %19, ptr %18, align 8
  call void @llvm.lifetime.start.p0(i64 8, ptr %7) #4
  %20 = getelementptr inbounds nuw %struct.resolved_path_t, ptr %6, i32 0, i32 0
  %21 = load i8, ptr %20, align 8, !tbaa !15
  %22 = call ptr @lv_fs_get_drv(i8 noundef signext %21)
  store ptr %22, ptr %7, align 8, !tbaa !6
  %23 = load ptr, ptr %7, align 8, !tbaa !6
  %24 = icmp eq ptr %23, null
  br i1 %24, label %25, label %26

25:                                               ; preds = %13
  store i32 3, ptr %3, align 4
  store i32 1, ptr %8, align 4
  br label %69

26:                                               ; preds = %13
  %27 = load ptr, ptr %7, align 8, !tbaa !6
  %28 = getelementptr inbounds nuw %struct._lv_fs_drv_t, ptr %27, i32 0, i32 2
  %29 = load ptr, ptr %28, align 8, !tbaa !8
  %30 = icmp ne ptr %29, null
  br i1 %30, label %31, label %41

31:                                               ; preds = %26
  %32 = load ptr, ptr %7, align 8, !tbaa !6
  %33 = getelementptr inbounds nuw %struct._lv_fs_drv_t, ptr %32, i32 0, i32 2
  %34 = load ptr, ptr %33, align 8, !tbaa !8
  %35 = load ptr, ptr %7, align 8, !tbaa !6
  %36 = call zeroext i1 %34(ptr noundef %35)
  %37 = zext i1 %36 to i32
  %38 = icmp eq i32 %37, 0
  br i1 %38, label %39, label %40

39:                                               ; preds = %31
  store i32 1, ptr %3, align 4
  store i32 1, ptr %8, align 4
  br label %69

40:                                               ; preds = %31
  br label %41

41:                                               ; preds = %40, %26
  %42 = load ptr, ptr %7, align 8, !tbaa !6
  %43 = getelementptr inbounds nuw %struct._lv_fs_drv_t, ptr %42, i32 0, i32 9
  %44 = load ptr, ptr %43, align 8, !tbaa !39
  %45 = icmp eq ptr %44, null
  br i1 %45, label %46, label %47

46:                                               ; preds = %41
  store i32 9, ptr %3, align 4
  store i32 1, ptr %8, align 4
  br label %69

47:                                               ; preds = %41
  call void @llvm.lifetime.start.p0(i64 8, ptr %9) #4
  %48 = load ptr, ptr %7, align 8, !tbaa !6
  %49 = getelementptr inbounds nuw %struct._lv_fs_drv_t, ptr %48, i32 0, i32 9
  %50 = load ptr, ptr %49, align 8, !tbaa !39
  %51 = load ptr, ptr %7, align 8, !tbaa !6
  %52 = getelementptr inbounds nuw %struct.resolved_path_t, ptr %6, i32 0, i32 1
  %53 = load ptr, ptr %52, align 8, !tbaa !22
  %54 = call ptr %50(ptr noundef %51, ptr noundef %53)
  store ptr %54, ptr %9, align 8, !tbaa !6
  %55 = load ptr, ptr %9, align 8, !tbaa !6
  %56 = icmp eq ptr %55, null
  br i1 %56, label %60, label %57

57:                                               ; preds = %47
  %58 = load ptr, ptr %9, align 8, !tbaa !6
  %59 = icmp eq ptr %58, inttoptr (i64 -1 to ptr)
  br i1 %59, label %60, label %61

60:                                               ; preds = %57, %47
  store i32 12, ptr %3, align 4
  store i32 1, ptr %8, align 4
  br label %68

61:                                               ; preds = %57
  %62 = load ptr, ptr %7, align 8, !tbaa !6
  %63 = load ptr, ptr %4, align 8, !tbaa !6
  %64 = getelementptr inbounds nuw %struct.lv_fs_dir_t, ptr %63, i32 0, i32 1
  store ptr %62, ptr %64, align 8, !tbaa !40
  %65 = load ptr, ptr %9, align 8, !tbaa !6
  %66 = load ptr, ptr %4, align 8, !tbaa !6
  %67 = getelementptr inbounds nuw %struct.lv_fs_dir_t, ptr %66, i32 0, i32 0
  store ptr %65, ptr %67, align 8, !tbaa !42
  store i32 0, ptr %3, align 4
  store i32 1, ptr %8, align 4
  br label %68

68:                                               ; preds = %61, %60
  call void @llvm.lifetime.end.p0(i64 8, ptr %9) #4
  br label %69

69:                                               ; preds = %68, %46, %39, %25
  call void @llvm.lifetime.end.p0(i64 8, ptr %7) #4
  call void @llvm.lifetime.end.p0(i64 16, ptr %6) #4
  br label %70

70:                                               ; preds = %69, %12
  %71 = load i32, ptr %3, align 4
  ret i32 %71
}