; Function Attrs: nounwind uwtable
define range(i32 0, 13) i32 @lv_fs_dir_open(ptr nocapture noundef writeonly %0, ptr noundef %1) local_unnamed_addr #0 {
  %3 = icmp eq ptr %1, null
  br i1 %3, label %lv_fs_get_drv.exit.thread, label %4

4:                                                ; preds = %2
  %5 = load i8, ptr %1, align 1, !tbaa !13
  %.not.i = icmp eq i8 %5, 0
  br i1 %.not.i, label %lv_fs_resolve_path.exit, label %6

6:                                                ; preds = %4
  %7 = getelementptr inbounds nuw i8, ptr %1, i64 1
  %8 = load i8, ptr %7, align 1, !tbaa !13
  %9 = icmp eq i8 %8, 58
  %10 = getelementptr inbounds nuw i8, ptr %1, i64 2
  %spec.select.i = select i1 %9, ptr %10, ptr %7
  br label %lv_fs_resolve_path.exit

lv_fs_resolve_path.exit:                          ; preds = %4, %6
  %.0.i = phi ptr [ %1, %4 ], [ %spec.select.i, %6 ]
  %11 = tail call ptr @lv_ll_get_head(ptr noundef nonnull getelementptr inbounds nuw (i8, ptr @lv_global, i64 832)) #6
  %.not6.i = icmp eq ptr %11, null
  br i1 %.not6.i, label %lv_fs_get_drv.exit.thread, label %.lr.ph.i

.lr.ph.i:                                         ; preds = %lv_fs_resolve_path.exit, %15
  %.07.i = phi ptr [ %16, %15 ], [ %11, %lv_fs_resolve_path.exit ]
  %12 = load ptr, ptr %.07.i, align 8, !tbaa !3
  %13 = load i8, ptr %12, align 8, !tbaa !7
  %14 = icmp eq i8 %13, %5
  br i1 %14, label %lv_fs_get_drv.exit, label %15

15:                                               ; preds = %.lr.ph.i
  %16 = tail call ptr @lv_ll_get_next(ptr noundef nonnull getelementptr inbounds nuw (i8, ptr @lv_global, i64 832), ptr noundef nonnull %.07.i) #6
  %.not.i22 = icmp eq ptr %16, null
  br i1 %.not.i22, label %lv_fs_get_drv.exit.thread, label %.lr.ph.i, !llvm.loop !10

lv_fs_get_drv.exit:                               ; preds = %.lr.ph.i
  %17 = getelementptr inbounds nuw i8, ptr %12, i64 8
  %18 = load ptr, ptr %17, align 8, !tbaa !12
  %.not = icmp eq ptr %18, null
  br i1 %.not, label %21, label %19

19:                                               ; preds = %lv_fs_get_drv.exit
  %20 = tail call zeroext i1 %18(ptr noundef nonnull %12) #6
  br i1 %20, label %21, label %lv_fs_get_drv.exit.thread

21:                                               ; preds = %19, %lv_fs_get_drv.exit
  %22 = getelementptr inbounds nuw i8, ptr %12, i64 64
  %23 = load ptr, ptr %22, align 8, !tbaa !34
  %24 = icmp eq ptr %23, null
  br i1 %24, label %lv_fs_get_drv.exit.thread, label %25

25:                                               ; preds = %21
  %26 = tail call ptr %23(ptr noundef nonnull %12, ptr noundef %.0.i) #6
  %magicptr = ptrtoint ptr %26 to i64
  switch i64 %magicptr, label %27 [
    i64 -1, label %lv_fs_get_drv.exit.thread
    i64 0, label %lv_fs_get_drv.exit.thread
  ]

27:                                               ; preds = %25
  %28 = getelementptr inbounds nuw i8, ptr %0, i64 8
  store ptr %12, ptr %28, align 8, !tbaa !35
  store ptr %26, ptr %0, align 8, !tbaa !37
  br label %lv_fs_get_drv.exit.thread

lv_fs_get_drv.exit.thread:                        ; preds = %15, %lv_fs_resolve_path.exit, %19, %21, %25, %25, %27, %2
  %.0 = phi i32 [ 11, %2 ], [ 1, %19 ], [ 9, %21 ], [ 0, %27 ], [ 12, %25 ], [ 12, %25 ], [ 3, %lv_fs_resolve_path.exit ], [ 3, %15 ]
  ret i32 %.0
}